target datalayout = "e-m:e-p270:32:32-p271:32:32-p272:64:64-i64:64-i128:128-f80:128-n8:16:32:64-S128"
target triple = "x86_64-pc-linux-gnu"

%struct.expert_field = type { i32, i32 }
%struct.tcpcl_dissect_ctx_t = type { ptr, ptr, i8, ptr, ptr, ptr }
%struct.tcpcl_peer_t = type { %struct._address, i32, i8, ptr, i8, i8, ptr, i16, i64, i64, ptr, i8, ptr, ptr }
%struct._address = type { i32, i32, ptr, ptr }
%struct.tcpcl_transfer_t = type { ptr, ptr, ptr }

@tcpcl_analyze_sequence = internal global i8 1, align 1
@hf_tcpclv4_xferext_transferlen_total_len = internal global i32 0, align 4
@ei_tcpclv4_xferload_over_xfer_mru = internal global %struct.expert_field zeroinitializer, align 4

; Function Attrs: null_pointer_is_valid sspstrong uwtable
define internal i32 @dissect_xferext_transferlen(ptr noundef %0, ptr noundef %1, ptr noundef %2, ptr noundef %3) #0 {
  %5 = alloca i32, align 4
  %6 = alloca ptr, align 8
  %7 = alloca ptr, align 8
  %8 = alloca ptr, align 8
  %9 = alloca ptr, align 8
  %10 = alloca i32, align 4
  %11 = alloca ptr, align 8
  %12 = alloca i32, align 4
  %13 = alloca i64, align 8
  %14 = alloca ptr, align 8
  %15 = alloca ptr, align 8
  %16 = alloca ptr, align 8
  store ptr %0, ptr %6, align 8
  store ptr %1, ptr %7, align 8
  store ptr %2, ptr %8, align 8
  store ptr %3, ptr %9, align 8
  call void @llvm.lifetime.start.p0(i64 4, ptr %10) #11
  store i32 0, ptr %10, align 4
  call void @llvm.lifetime.start.p0(i64 8, ptr %11) #11
  %17 = load ptr, ptr %6, align 8
  %18 = load ptr, ptr %7, align 8
  %19 = load i32, ptr %10, align 4
  %20 = call ptr @tcpcl_dissect_ctx_get(ptr noundef %17, ptr noundef %18, i32 noundef %19)
  store ptr %20, ptr %11, align 8
  %21 = load ptr, ptr %11, align 8
  %22 = icmp ne ptr %21, null
  br i1 %22, label %24, label %23

23:                                               ; preds = %4
  store i32 0, ptr %5, align 4
  store i32 1, ptr %12, align 4
  br label %82

24:                                               ; preds = %4
  call void @llvm.lifetime.start.p0(i64 8, ptr %13) #11
  %25 = load ptr, ptr %6, align 8
  %26 = load i32, ptr %10, align 4
  %27 = call i64 @tvb_get_uint64(ptr noundef %25, i32 noundef %26, i32 noundef 0)
  store i64 %27, ptr %13, align 8
  call void @llvm.lifetime.start.p0(i64 8, ptr %14) #11
  %28 = load ptr, ptr %8, align 8
  %29 = load i32, ptr @hf_tcpclv4_xferext_transferlen_total_len, align 4
  %30 = load ptr, ptr %6, align 8
  %31 = load i32, ptr %10, align 4
  %32 = load i64, ptr %13, align 8
  %33 = call ptr @proto_tree_add_uint64(ptr noundef %28, i32 noundef %29, ptr noundef %30, i32 noundef %31, i32 noundef 8, i64 noundef %32)
  store ptr %33, ptr %14, align 8
  %34 = load i32, ptr %10, align 4
  %35 = add i32 %34, 8
  store i32 %35, ptr %10, align 4
  %36 = load i64, ptr %13, align 8
  %37 = load ptr, ptr %11, align 8
  %38 = getelementptr inbounds nuw %struct.tcpcl_dissect_ctx_t, ptr %37, i32 0, i32 4
  %39 = load ptr, ptr %38, align 8
  %40 = getelementptr inbounds nuw %struct.tcpcl_peer_t, ptr %39, i32 0, i32 9
  %41 = load i64, ptr %40, align 8
  %42 = icmp ugt i64 %36, %41
  br i1 %42, label %43, label %47

43:                                               ; preds = %24
  %44 = load ptr, ptr %7, align 8
  %45 = load ptr, ptr %14, align 8
  %46 = call ptr @expert_add_info(ptr noundef %44, ptr noundef %45, ptr noundef @ei_tcpclv4_xferload_over_xfer_mru)
  br label %47

47:                                               ; preds = %43, %24
  %48 = load i8, ptr @tcpcl_analyze_sequence, align 1, !range !6, !noundef !7
  %49 = trunc i8 %48 to i1
  br i1 %49, label %50, label %80

50:                                               ; preds = %47
  call void @llvm.lifetime.start.p0(i64 8, ptr %15) #11
  %51 = load ptr, ptr %11, align 8
  %52 = getelementptr inbounds nuw %struct.tcpcl_dissect_ctx_t, ptr %51, i32 0, i32 3
  %53 = load ptr, ptr %52, align 8
  %54 = getelementptr inbounds nuw %struct.tcpcl_peer_t, ptr %53, i32 0, i32 12
  %55 = load ptr, ptr %54, align 8
  %56 = load ptr, ptr %11, align 8
  %57 = getelementptr inbounds nuw %struct.tcpcl_dissect_ctx_t, ptr %56, i32 0, i32 1
  %58 = load ptr, ptr %57, align 8
  %59 = call ptr @wmem_map_lookup(ptr noundef %55, ptr noundef %58)
  store ptr %59, ptr %15, align 8
  %60 = load ptr, ptr %15, align 8
  %61 = icmp ne ptr %60, null
  br i1 %61, label %62, label %79

62:                                               ; preds = %50
  call void @llvm.lifetime.start.p0(i64 8, ptr %16) #11
  %63 = load ptr, ptr %11, align 8
  %64 = getelementptr inbounds nuw %struct.tcpcl_dissect_ctx_t, ptr %63, i32 0, i32 3
  %65 = load ptr, ptr %64, align 8
  %66 = getelementptr inbounds nuw %struct.tcpcl_peer_t, ptr %65, i32 0, i32 13
  %67 = load ptr, ptr %66, align 8
  %68 = load ptr, ptr %15, align 8
  %69 = load i64, ptr %68, align 8
  %70 = call ptr @get_or_create_transfer_t(ptr noundef %67, i64 noundef %69)
  store ptr %70, ptr %16, align 8
  %71 = call ptr @wmem_file_scope()
  %72 = call noalias ptr @wmem_alloc(ptr noundef %71, i64 noundef 8) #12
  %73 = load ptr, ptr %16, align 8
  %74 = getelementptr inbounds nuw %struct.tcpcl_transfer_t, ptr %73, i32 0, i32 2
  store ptr %72, ptr %74, align 8
  %75 = load i64, ptr %13, align 8
  %76 = load ptr, ptr %16, align 8
  %77 = getelementptr inbounds nuw %struct.tcpcl_transfer_t, ptr %76, i32 0, i32 2
  %78 = load ptr, ptr %77, align 8
  store i64 %75, ptr %78, align 8
  call void @llvm.lifetime.end.p0(i64 8, ptr %16) #11
  br label %79

79:                                               ; preds = %62, %50
  call void @llvm.lifetime.end.p0(i64 8, ptr %15) #11
  br label %80

80:                                               ; preds = %79, %47
  %81 = load i32, ptr %10, align 4
  store i32 %81, ptr %5, align 4
  store i32 1, ptr %12, align 4
  call void @llvm.lifetime.end.p0(i64 8, ptr %14) #11
  call void @llvm.lifetime.end.p0(i64 8, ptr %13) #11
  br label %82

82:                                               ; preds = %80, %23
  call void @llvm.lifetime.end.p0(i64 8, ptr %11) #11
  call void @llvm.lifetime.end.p0(i64 4, ptr %10) #11
  %83 = load i32, ptr %5, align 4
  ret i32 %83
}