; Function Attrs: null_pointer_is_valid sspstrong uwtable
define internal range(i32 0, 9) i32 @dissect_xferext_transferlen(ptr noundef %0, ptr noundef %1, ptr noundef %2, ptr readnone captures(none) %3) #0 {
  %5 = tail call ptr @tcpcl_dissect_ctx_get(ptr noundef %0, ptr noundef %1, i32 noundef 0)
  %.not = icmp eq ptr %5, null
  br i1 %.not, label %36, label %6

6:                                                ; preds = %4
  %7 = tail call i64 @tvb_get_uint64(ptr noundef %0, i32 noundef 0, i32 noundef 0)
  %8 = load i32, ptr @hf_tcpclv4_xferext_transferlen_total_len, align 4
  %9 = tail call ptr @proto_tree_add_uint64(ptr noundef %2, i32 noundef %8, ptr noundef %0, i32 noundef 0, i32 noundef 8, i64 noundef %7)
  %10 = getelementptr inbounds nuw i8, ptr %5, i64 32
  %11 = load ptr, ptr %10, align 8
  %12 = getelementptr inbounds nuw i8, ptr %11, i64 72
  %13 = load i64, ptr %12, align 8
  %14 = icmp ugt i64 %7, %13
  br i1 %14, label %15, label %17

15:                                               ; preds = %6
  %16 = tail call ptr @expert_add_info(ptr noundef %1, ptr noundef %9, ptr noundef nonnull @ei_tcpclv4_xferload_over_xfer_mru)
  br label %17

17:                                               ; preds = %15, %6
  %18 = load i8, ptr @tcpcl_analyze_sequence, align 1, !range !8, !noundef !9
  %19 = trunc nuw i8 %18 to i1
  br i1 %19, label %20, label %36

20:                                               ; preds = %17
  %21 = getelementptr inbounds nuw i8, ptr %5, i64 24
  %22 = load ptr, ptr %21, align 8
  %23 = getelementptr inbounds nuw i8, ptr %22, i64 96
  %24 = load ptr, ptr %23, align 8
  %25 = getelementptr inbounds nuw i8, ptr %5, i64 8
  %26 = load ptr, ptr %25, align 8
  %27 = tail call ptr @wmem_map_lookup(ptr noundef %24, ptr noundef %26)
  %.not26 = icmp eq ptr %27, null
  br i1 %.not26, label %36, label %28

28:                                               ; preds = %20
  %29 = getelementptr inbounds nuw i8, ptr %22, i64 104
  %30 = load ptr, ptr %29, align 8
  %31 = load i64, ptr %27, align 8
  %32 = tail call fastcc ptr @get_or_create_transfer_t(ptr noundef %30, i64 noundef %31)
  %33 = tail call ptr @wmem_file_scope()
  %34 = tail call noalias dereferenceable_or_null(8) ptr @wmem_alloc(ptr noundef %33, i64 noundef 8) #12
  %35 = getelementptr inbounds nuw i8, ptr %32, i64 16
  store ptr %34, ptr %35, align 8
  store i64 %7, ptr %34, align 8
  br label %36

36:                                               ; preds = %17, %28, %20, %4
  %.0 = phi i32 [ 0, %4 ], [ 8, %20 ], [ 8, %28 ], [ 8, %17 ]
  ret i32 %.0
}